; Function Attrs: nounwind uwtable
define zeroext range(i8 0, 2) i8 @l_Int_Linear_le__coeff__cert(ptr noundef %0, ptr noundef %1, ptr noundef %2) local_unnamed_addr #1 {
  %4 = load ptr, ptr @l_Int_Linear_instInhabitedExpr___closed__1, align 8, !tbaa !11
  %5 = ptrtoint ptr %4 to i64
  %6 = and i64 %5, 1
  %.not.i.i = icmp eq i64 %6, 0
  br i1 %.not.i.i, label %lean_int_dec_lt.exit, label %7, !prof !4

7:                                                ; preds = %3
  %8 = ptrtoint ptr %2 to i64
  %9 = and i64 %8, 1
  %.not7.i.i = icmp eq i64 %9, 0
  br i1 %.not7.i.i, label %lean_int_dec_lt.exit, label %10, !prof !4

10:                                               ; preds = %7
  %11 = lshr i64 %5, 1
  %12 = trunc i64 %11 to i32
  %13 = lshr i64 %8, 1
  %14 = trunc i64 %13 to i32
  %15 = icmp slt i32 %12, %14
  br i1 %15, label %27, label %17

lean_int_dec_lt.exit:                             ; preds = %3, %7
  %16 = tail call zeroext i1 @lean_int_big_lt(ptr noundef %4, ptr noundef %2) #5
  br i1 %16, label %27, label %17

17:                                               ; preds = %10, %lean_int_dec_lt.exit
  %18 = ptrtoint ptr %0 to i64
  %19 = and i64 %18, 1
  %.not23 = icmp eq i64 %19, 0
  br i1 %.not23, label %20, label %lean_dec.exit17

20:                                               ; preds = %17
  %21 = load i32, ptr %0, align 4, !tbaa !6
  %22 = icmp sgt i32 %21, 1
  br i1 %22, label %23, label %25, !prof !5

23:                                               ; preds = %20
  %24 = add nsw i32 %21, -1
  store i32 %24, ptr %0, align 4, !tbaa !6
  br label %lean_dec.exit17

25:                                               ; preds = %20
  %.not.i = icmp eq i32 %21, 0
  br i1 %.not.i, label %lean_dec.exit17, label %26

26:                                               ; preds = %25
  tail call void @lean_dec_ref_cold(ptr noundef nonnull %0) #5
  br label %lean_dec.exit17

27:                                               ; preds = %10, %lean_int_dec_lt.exit
  %28 = tail call zeroext i8 @l_Int_Linear_Poly_divCoeffs(ptr noundef %2, ptr noundef %0)
  %29 = icmp eq i8 %28, 0
  br i1 %29, label %30, label %40

30:                                               ; preds = %27
  %31 = ptrtoint ptr %0 to i64
  %32 = and i64 %31, 1
  %.not22 = icmp eq i64 %32, 0
  br i1 %.not22, label %33, label %lean_dec.exit17

33:                                               ; preds = %30
  %34 = load i32, ptr %0, align 4, !tbaa !6
  %35 = icmp sgt i32 %34, 1
  br i1 %35, label %36, label %38, !prof !5

36:                                               ; preds = %33
  %37 = add nsw i32 %34, -1
  store i32 %37, ptr %0, align 4, !tbaa !6
  br label %lean_dec.exit17

38:                                               ; preds = %33
  %.not.i18 = icmp eq i32 %34, 0
  br i1 %.not.i18, label %lean_dec.exit17, label %39

39:                                               ; preds = %38
  tail call void @lean_dec_ref_cold(ptr noundef nonnull %0) #5
  br label %lean_dec.exit17

40:                                               ; preds = %27
  %41 = tail call ptr @l_Int_Linear_Poly_div(ptr noundef %2, ptr noundef %0)
  %42 = tail call zeroext i8 @l_Int_Linear_beqPoly____x40_Init_Data_Int_Linear___hyg_596_(ptr noundef %1, ptr noundef %41)
  %43 = ptrtoint ptr %41 to i64
  %44 = and i64 %43, 1
  %.not = icmp eq i64 %44, 0
  br i1 %.not, label %45, label %lean_dec.exit17

45:                                               ; preds = %40
  %46 = load i32, ptr %41, align 4, !tbaa !6
  %47 = icmp sgt i32 %46, 1
  br i1 %47, label %48, label %50, !prof !5

48:                                               ; preds = %45
  %49 = add nsw i32 %46, -1
  store i32 %49, ptr %41, align 4, !tbaa !6
  br label %lean_dec.exit17

50:                                               ; preds = %45
  %.not.i20 = icmp eq i32 %46, 0
  br i1 %.not.i20, label %lean_dec.exit17, label %51

51:                                               ; preds = %50
  tail call void @lean_dec_ref_cold(ptr noundef nonnull %41) #5
  br label %lean_dec.exit17

lean_dec.exit17:                                  ; preds = %40, %48, %50, %51, %30, %36, %38, %39, %17, %23, %25, %26
  %.0 = phi i8 [ 0, %26 ], [ 0, %25 ], [ 0, %23 ], [ 0, %17 ], [ 0, %39 ], [ 0, %38 ], [ 0, %36 ], [ 0, %30 ], [ %42, %51 ], [ %42, %50 ], [ %42, %48 ], [ %42, %40 ]
  ret i8 %.0
}